; Function Attrs: nounwind uwtable
define range(i32 -1, 3) i32 @Gia_ManComputeDep(ptr noundef %0, i32 noundef %1, i32 noundef %2) local_unnamed_addr #2 {
  %4 = tail call ptr @Gia_ManComputeDepAig(ptr noundef %0, i32 noundef %1, i32 noundef %2)
  %5 = tail call ptr @Cec4_ManSimulateTest3(ptr noundef %4, i32 noundef 100000, i32 noundef 0) #36
  %6 = getelementptr i8, ptr %5, i64 32
  %.val15 = load ptr, ptr %6, align 8
  %7 = getelementptr i8, ptr %5, i64 72
  %.val16 = load ptr, ptr %7, align 8
  %8 = getelementptr i8, ptr %.val16, i64 8
  %.val16.val = load ptr, ptr %8, align 8
  %9 = load i32, ptr %.val16.val, align 4
  %10 = sext i32 %9 to i64
  %11 = getelementptr inbounds %struct.Gia_Obj_t_, ptr %.val15, i64 %10
  %.val3.i = load i64, ptr %11, align 4
  %12 = trunc i64 %.val3.i to i32
  %13 = and i32 %12, 536870911
  %14 = getelementptr inbounds nuw i8, ptr %.val16.val, i64 4
  %15 = load i32, ptr %14, align 4
  %16 = sext i32 %15 to i64
  %17 = getelementptr inbounds %struct.Gia_Obj_t_, ptr %.val15, i64 %16
  %.val3.i19 = load i64, ptr %17, align 4
  %18 = trunc i64 %.val3.i19 to i32
  %19 = and i32 %18, 536870911
  tail call void @Gia_ManStop(ptr noundef %4) #36
  tail call void @Gia_ManStop(ptr noundef %5) #36
  %20 = icmp ne i32 %9, %13
  %21 = icmp eq i32 %15, %19
  %. = sext i1 %20 to i32
  %spec.select = select i1 %20, i32 1, i32 2
  %.0 = select i1 %21, i32 %spec.select, i32 %.
  ret i32 %.0
}